target datalayout = "e-m:e-p270:32:32-p271:32:32-p272:64:64-i64:64-i128:128-f80:128-n8:16:32:64-S128"
target triple = "x86_64-pc-linux-gnu"

@.str.7 = private unnamed_addr constant [2 x i8] c"\0A\00", align 1
@.str.117 = private unnamed_addr constant [3 x i8] c"%d\00", align 1
@__const.Abc_Show6VarFunc.Cells = private unnamed_addr constant [8 x i32] [i32 0, i32 4, i32 6, i32 2, i32 3, i32 7, i32 5, i32 1], align 16
@.str.144 = private unnamed_addr constant [2 x i8] c" \00", align 1
@.str.145 = private unnamed_addr constant [2 x i8] c"+\00", align 1
@.str.146 = private unnamed_addr constant [2 x i8] c"-\00", align 1
@.str.147 = private unnamed_addr constant [3 x i8] c" |\00", align 1
@.str.148 = private unnamed_addr constant [2 x i8] c"0\00", align 1
@.str.149 = private unnamed_addr constant [2 x i8] c"1\00", align 1
@.str.150 = private unnamed_addr constant [3 x i8] c"%c\00", align 1

; Function Attrs: nounwind uwtable
define void @Abc_Show6VarFunc(i64 noundef %0, i64 noundef %1) #0 {
  %3 = alloca i64, align 8
  %4 = alloca i64, align 8
  %5 = alloca [8 x i32], align 16
  %6 = alloca i32, align 4
  %7 = alloca i32, align 4
  %8 = alloca i32, align 4
  store i64 %0, ptr %3, align 8
  store i64 %1, ptr %4, align 8
  call void @llvm.memcpy.p0.p0.i64(ptr align 16 %5, ptr align 16 @__const.Abc_Show6VarFunc.Cells, i64 32, i1 false)
  store i32 0, ptr %6, align 4
  br label %9

9:                                                ; preds = %14, %2
  %10 = load i32, ptr %6, align 4
  %11 = icmp slt i32 %10, 4
  br i1 %11, label %12, label %17

12:                                               ; preds = %9
  %13 = call i32 (ptr, ...) @printf(ptr noundef @.str.144)
  br label %14

14:                                               ; preds = %12
  %15 = load i32, ptr %6, align 4
  %16 = add nsw i32 %15, 1
  store i32 %16, ptr %6, align 4
  br label %9, !llvm.loop !98

17:                                               ; preds = %9
  %18 = call i32 (ptr, ...) @printf(ptr noundef @.str.144)
  store i32 0, ptr %7, align 4
  br label %19

19:                                               ; preds = %41, %17
  %20 = load i32, ptr %7, align 4
  %21 = icmp slt i32 %20, 8
  br i1 %21, label %22, label %44

22:                                               ; preds = %19
  store i32 0, ptr %6, align 4
  br label %23

23:                                               ; preds = %36, %22
  %24 = load i32, ptr %6, align 4
  %25 = icmp slt i32 %24, 3
  br i1 %25, label %26, label %39

26:                                               ; preds = %23
  %27 = load i32, ptr %7, align 4
  %28 = sext i32 %27 to i64
  %29 = getelementptr inbounds [8 x i32], ptr %5, i64 0, i64 %28
  %30 = load i32, ptr %29, align 4
  %31 = load i32, ptr %6, align 4
  %32 = sub nsw i32 2, %31
  %33 = ashr i32 %30, %32
  %34 = and i32 %33, 1
  %35 = call i32 (ptr, ...) @printf(ptr noundef @.str.117, i32 noundef %34)
  br label %36

36:                                               ; preds = %26
  %37 = load i32, ptr %6, align 4
  %38 = add nsw i32 %37, 1
  store i32 %38, ptr %6, align 4
  br label %23, !llvm.loop !99

39:                                               ; preds = %23
  %40 = call i32 (ptr, ...) @printf(ptr noundef @.str.144)
  br label %41

41:                                               ; preds = %39
  %42 = load i32, ptr %7, align 4
  %43 = add nsw i32 %42, 1
  store i32 %43, ptr %7, align 4
  br label %19, !llvm.loop !100

44:                                               ; preds = %19
  %45 = call i32 (ptr, ...) @printf(ptr noundef @.str.7)
  store i32 0, ptr %6, align 4
  br label %46

46:                                               ; preds = %51, %44
  %47 = load i32, ptr %6, align 4
  %48 = icmp slt i32 %47, 4
  br i1 %48, label %49, label %54

49:                                               ; preds = %46
  %50 = call i32 (ptr, ...) @printf(ptr noundef @.str.144)
  br label %51

51:                                               ; preds = %49
  %52 = load i32, ptr %6, align 4
  %53 = add nsw i32 %52, 1
  store i32 %53, ptr %6, align 4
  br label %46, !llvm.loop !101

54:                                               ; preds = %46
  %55 = call i32 (ptr, ...) @printf(ptr noundef @.str.145)
  store i32 0, ptr %7, align 4
  br label %56

56:                                               ; preds = %70, %54
  %57 = load i32, ptr %7, align 4
  %58 = icmp slt i32 %57, 8
  br i1 %58, label %59, label %73

59:                                               ; preds = %56
  store i32 0, ptr %6, align 4
  br label %60

60:                                               ; preds = %65, %59
  %61 = load i32, ptr %6, align 4
  %62 = icmp slt i32 %61, 3
  br i1 %62, label %63, label %68

63:                                               ; preds = %60
  %64 = call i32 (ptr, ...) @printf(ptr noundef @.str.146)
  br label %65

65:                                               ; preds = %63
  %66 = load i32, ptr %6, align 4
  %67 = add nsw i32 %66, 1
  store i32 %67, ptr %6, align 4
  br label %60, !llvm.loop !102

68:                                               ; preds = %60
  %69 = call i32 (ptr, ...) @printf(ptr noundef @.str.145)
  br label %70

70:                                               ; preds = %68
  %71 = load i32, ptr %7, align 4
  %72 = add nsw i32 %71, 1
  store i32 %72, ptr %7, align 4
  br label %56, !llvm.loop !103

73:                                               ; preds = %56
  %74 = call i32 (ptr, ...) @printf(ptr noundef @.str.7)
  store i32 0, ptr %8, align 4
  br label %75

75:                                               ; preds = %184, %73
  %76 = load i32, ptr %8, align 4
  %77 = icmp slt i32 %76, 8
  br i1 %77, label %78, label %187

78:                                               ; preds = %75
  store i32 0, ptr %6, align 4
  br label %79

79:                                               ; preds = %92, %78
  %80 = load i32, ptr %6, align 4
  %81 = icmp slt i32 %80, 3
  br i1 %81, label %82, label %95

82:                                               ; preds = %79
  %83 = load i32, ptr %8, align 4
  %84 = sext i32 %83 to i64
  %85 = getelementptr inbounds [8 x i32], ptr %5, i64 0, i64 %84
  %86 = load i32, ptr %85, align 4
  %87 = load i32, ptr %6, align 4
  %88 = sub nsw i32 2, %87
  %89 = ashr i32 %86, %88
  %90 = and i32 %89, 1
  %91 = call i32 (ptr, ...) @printf(ptr noundef @.str.117, i32 noundef %90)
  br label %92

92:                                               ; preds = %82
  %93 = load i32, ptr %6, align 4
  %94 = add nsw i32 %93, 1
  store i32 %94, ptr %6, align 4
  br label %79, !llvm.loop !104

95:                                               ; preds = %79
  %96 = call i32 (ptr, ...) @printf(ptr noundef @.str.147)
  store i32 0, ptr %7, align 4
  br label %97

97:                                               ; preds = %142, %95
  %98 = load i32, ptr %7, align 4
  %99 = icmp slt i32 %98, 8
  br i1 %99, label %100, label %145

100:                                              ; preds = %97
  %101 = call i32 (ptr, ...) @printf(ptr noundef @.str.144)
  %102 = load i64, ptr %3, align 8
  %103 = load i32, ptr %8, align 4
  %104 = sext i32 %103 to i64
  %105 = getelementptr inbounds [8 x i32], ptr %5, i64 0, i64 %104
  %106 = load i32, ptr %105, align 4
  %107 = mul nsw i32 %106, 8
  %108 = load i32, ptr %7, align 4
  %109 = sext i32 %108 to i64
  %110 = getelementptr inbounds [8 x i32], ptr %5, i64 0, i64 %109
  %111 = load i32, ptr %110, align 4
  %112 = add nsw i32 %107, %111
  %113 = zext i32 %112 to i64
  %114 = lshr i64 %102, %113
  %115 = and i64 %114, 1
  %116 = icmp ne i64 %115, 0
  br i1 %116, label %117, label %119

117:                                              ; preds = %100
  %118 = call i32 (ptr, ...) @printf(ptr noundef @.str.148)
  br label %140

119:                                              ; preds = %100
  %120 = load i64, ptr %4, align 8
  %121 = load i32, ptr %8, align 4
  %122 = sext i32 %121 to i64
  %123 = getelementptr inbounds [8 x i32], ptr %5, i64 0, i64 %122
  %124 = load i32, ptr %123, align 4
  %125 = mul nsw i32 %124, 8
  %126 = load i32, ptr %7, align 4
  %127 = sext i32 %126 to i64
  %128 = getelementptr inbounds [8 x i32], ptr %5, i64 0, i64 %127
  %129 = load i32, ptr %128, align 4
  %130 = add nsw i32 %125, %129
  %131 = zext i32 %130 to i64
  %132 = lshr i64 %120, %131
  %133 = and i64 %132, 1
  %134 = icmp ne i64 %133, 0
  br i1 %134, label %135, label %137

135:                                              ; preds = %119
  %136 = call i32 (ptr, ...) @printf(ptr noundef @.str.149)
  br label %139

137:                                              ; preds = %119
  %138 = call i32 (ptr, ...) @printf(ptr noundef @.str.144)
  br label %139

139:                                              ; preds = %137, %135
  br label %140

140:                                              ; preds = %139, %117
  %141 = call i32 (ptr, ...) @printf(ptr noundef @.str.147)
  br label %142

142:                                              ; preds = %140
  %143 = load i32, ptr %7, align 4
  %144 = add nsw i32 %143, 1
  store i32 %144, ptr %7, align 4
  br label %97, !llvm.loop !105

145:                                              ; preds = %97
  %146 = call i32 (ptr, ...) @printf(ptr noundef @.str.7)
  store i32 0, ptr %6, align 4
  br label %147

147:                                              ; preds = %152, %145
  %148 = load i32, ptr %6, align 4
  %149 = icmp slt i32 %148, 4
  br i1 %149, label %150, label %155

150:                                              ; preds = %147
  %151 = call i32 (ptr, ...) @printf(ptr noundef @.str.144)
  br label %152

152:                                              ; preds = %150
  %153 = load i32, ptr %6, align 4
  %154 = add nsw i32 %153, 1
  store i32 %154, ptr %6, align 4
  br label %147, !llvm.loop !106

155:                                              ; preds = %147
  %156 = call i32 (ptr, ...) @printf(ptr noundef @.str.145)
  store i32 0, ptr %7, align 4
  br label %157

157:                                              ; preds = %179, %155
  %158 = load i32, ptr %7, align 4
  %159 = icmp slt i32 %158, 8
  br i1 %159, label %160, label %182

160:                                              ; preds = %157
  store i32 0, ptr %6, align 4
  br label %161

161:                                              ; preds = %166, %160
  %162 = load i32, ptr %6, align 4
  %163 = icmp slt i32 %162, 3
  br i1 %163, label %164, label %169

164:                                              ; preds = %161
  %165 = call i32 (ptr, ...) @printf(ptr noundef @.str.146)
  br label %166

166:                                              ; preds = %164
  %167 = load i32, ptr %6, align 4
  %168 = add nsw i32 %167, 1
  store i32 %168, ptr %6, align 4
  br label %161, !llvm.loop !107

169:                                              ; preds = %161
  %170 = load i32, ptr %8, align 4
  %171 = icmp eq i32 %170, 7
  br i1 %171, label %175, label %172

172:                                              ; preds = %169
  %173 = load i32, ptr %7, align 4
  %174 = icmp eq i32 %173, 7
  br label %175

175:                                              ; preds = %172, %169
  %176 = phi i1 [ true, %169 ], [ %174, %172 ]
  %177 = select i1 %176, i32 43, i32 124
  %178 = call i32 (ptr, ...) @printf(ptr noundef @.str.150, i32 noundef %177)
  br label %179

179:                                              ; preds = %175
  %180 = load i32, ptr %7, align 4
  %181 = add nsw i32 %180, 1
  store i32 %181, ptr %7, align 4
  br label %157, !llvm.loop !108

182:                                              ; preds = %157
  %183 = call i32 (ptr, ...) @printf(ptr noundef @.str.7)
  br label %184

184:                                              ; preds = %182
  %185 = load i32, ptr %8, align 4
  %186 = add nsw i32 %185, 1
  store i32 %186, ptr %8, align 4
  br label %75, !llvm.loop !109

187:                                              ; preds = %75
  ret void
}