; Function Attrs: nofree nounwind uwtable
define void @Abc_Show6VarFunc(i64 noundef %0, i64 noundef %1) local_unnamed_addr #11 {
  br label %3

3:                                                ; preds = %2, %3
  %.03763 = phi i32 [ 0, %2 ], [ %4, %3 ]
  %putchar59 = tail call i32 @putchar(i32 32)
  %4 = add nuw nsw i32 %.03763, 1
  %exitcond.not = icmp eq i32 %4, 4
  br i1 %exitcond.not, label %5, label %3, !llvm.loop !101

5:                                                ; preds = %3
  %putchar = tail call i32 @putchar(i32 32)
  br label %.preheader62

.preheader62:                                     ; preds = %5, %14
  %indvars.iv = phi i64 [ 0, %5 ], [ %indvars.iv.next, %14 ]
  %6 = getelementptr inbounds nuw [8 x i32], ptr @__const.Abc_Show6VarFunc.Cells, i64 0, i64 %indvars.iv
  %7 = load i32, ptr %6, align 4
  br label %8

8:                                                ; preds = %.preheader62, %8
  %.13864 = phi i32 [ 0, %.preheader62 ], [ %13, %8 ]
  %9 = sub nuw nsw i32 2, %.13864
  %10 = lshr i32 %7, %9
  %11 = and i32 %10, 1
  %12 = tail call i32 (ptr, ...) @printf(ptr noundef nonnull dereferenceable(1) @.str.117, i32 noundef %11)
  %13 = add nuw nsw i32 %.13864, 1
  %exitcond75.not = icmp eq i32 %13, 3
  br i1 %exitcond75.not, label %14, label %8, !llvm.loop !102

14:                                               ; preds = %8
  %putchar58 = tail call i32 @putchar(i32 32)
  %indvars.iv.next = add nuw nsw i64 %indvars.iv, 1
  %exitcond77.not = icmp eq i64 %indvars.iv.next, 8
  br i1 %exitcond77.not, label %15, label %.preheader62, !llvm.loop !103

15:                                               ; preds = %14
  %putchar41 = tail call i32 @putchar(i32 10)
  br label %16

16:                                               ; preds = %15, %16
  %.23966 = phi i32 [ 0, %15 ], [ %17, %16 ]
  %putchar57 = tail call i32 @putchar(i32 32)
  %17 = add nuw nsw i32 %.23966, 1
  %exitcond78.not = icmp eq i32 %17, 4
  br i1 %exitcond78.not, label %18, label %16, !llvm.loop !104

18:                                               ; preds = %16
  %putchar42 = tail call i32 @putchar(i32 43)
  br label %.preheader61

.preheader61:                                     ; preds = %18, %21
  %.168 = phi i32 [ 0, %18 ], [ %22, %21 ]
  br label %19

19:                                               ; preds = %.preheader61, %19
  %.34067 = phi i32 [ 0, %.preheader61 ], [ %20, %19 ]
  %putchar56 = tail call i32 @putchar(i32 45)
  %20 = add nuw nsw i32 %.34067, 1
  %exitcond79.not = icmp eq i32 %20, 3
  br i1 %exitcond79.not, label %21, label %19, !llvm.loop !105

21:                                               ; preds = %19
  %putchar55 = tail call i32 @putchar(i32 43)
  %22 = add nuw nsw i32 %.168, 1
  %exitcond80.not = icmp eq i32 %22, 8
  br i1 %exitcond80.not, label %23, label %.preheader61, !llvm.loop !106

23:                                               ; preds = %21
  %putchar43 = tail call i32 @putchar(i32 10)
  br label %.preheader60

.preheader60:                                     ; preds = %23, %56
  %indvars.iv89 = phi i64 [ 0, %23 ], [ %indvars.iv.next90, %56 ]
  %24 = getelementptr inbounds nuw [8 x i32], ptr @__const.Abc_Show6VarFunc.Cells, i64 0, i64 %indvars.iv89
  %25 = load i32, ptr %24, align 4
  br label %26

26:                                               ; preds = %.preheader60, %26
  %.469 = phi i32 [ 0, %.preheader60 ], [ %31, %26 ]
  %27 = sub nuw nsw i32 2, %.469
  %28 = lshr i32 %25, %27
  %29 = and i32 %28, 1
  %30 = tail call i32 (ptr, ...) @printf(ptr noundef nonnull dereferenceable(1) @.str.117, i32 noundef %29)
  %31 = add nuw nsw i32 %.469, 1
  %exitcond81.not = icmp eq i32 %31, 3
  br i1 %exitcond81.not, label %32, label %26, !llvm.loop !107

32:                                               ; preds = %26
  %33 = tail call i32 (ptr, ...) @printf(ptr noundef nonnull dereferenceable(1) @.str.147)
  %34 = shl nsw i32 %25, 3
  br label %35

35:                                               ; preds = %32, %35
  %indvars.iv82 = phi i64 [ 0, %32 ], [ %indvars.iv.next83, %35 ]
  %putchar50 = tail call i32 @putchar(i32 32)
  %36 = getelementptr inbounds nuw [8 x i32], ptr @__const.Abc_Show6VarFunc.Cells, i64 0, i64 %indvars.iv82
  %37 = load i32, ptr %36, align 4
  %38 = add nsw i32 %34, %37
  %39 = zext nneg i32 %38 to i64
  %40 = shl nuw i64 1, %39
  %41 = and i64 %40, %0
  %.not = icmp eq i64 %41, 0
  %42 = and i64 %40, %1
  %.not51 = icmp eq i64 %42, 0
  %. = select i1 %.not51, i32 32, i32 49
  %.sink = select i1 %.not, i32 %., i32 48
  %putchar53 = tail call i32 @putchar(i32 %.sink)
  %43 = tail call i32 (ptr, ...) @printf(ptr noundef nonnull dereferenceable(1) @.str.147)
  %indvars.iv.next83 = add nuw nsw i64 %indvars.iv82, 1
  %exitcond85.not = icmp eq i64 %indvars.iv.next83, 8
  br i1 %exitcond85.not, label %44, label %35, !llvm.loop !108

44:                                               ; preds = %35
  %putchar44 = tail call i32 @putchar(i32 10)
  br label %45

45:                                               ; preds = %44, %45
  %.571 = phi i32 [ 0, %44 ], [ %46, %45 ]
  %putchar49 = tail call i32 @putchar(i32 32)
  %46 = add nuw nsw i32 %.571, 1
  %exitcond86.not = icmp eq i32 %46, 4
  br i1 %exitcond86.not, label %47, label %45, !llvm.loop !109

47:                                               ; preds = %45
  %putchar45 = tail call i32 @putchar(i32 43)
  %48 = icmp eq i64 %indvars.iv89, 7
  br label %.preheader

.preheader:                                       ; preds = %47, %51
  %.373 = phi i32 [ 0, %47 ], [ %55, %51 ]
  br label %49

49:                                               ; preds = %.preheader, %49
  %.672 = phi i32 [ 0, %.preheader ], [ %50, %49 ]
  %putchar48 = tail call i32 @putchar(i32 45)
  %50 = add nuw nsw i32 %.672, 1
  %exitcond87.not = icmp eq i32 %50, 3
  br i1 %exitcond87.not, label %51, label %49, !llvm.loop !110

51:                                               ; preds = %49
  %52 = icmp eq i32 %.373, 7
  %53 = or i1 %48, %52
  %54 = select i1 %53, i32 43, i32 124
  %putchar47 = tail call i32 @putchar(i32 %54)
  %55 = add nuw nsw i32 %.373, 1
  %exitcond88.not = icmp eq i32 %55, 8
  br i1 %exitcond88.not, label %56, label %.preheader, !llvm.loop !111

56:                                               ; preds = %51
  %putchar46 = tail call i32 @putchar(i32 10)
  %indvars.iv.next90 = add nuw nsw i64 %indvars.iv89, 1
  %exitcond92.not = icmp eq i64 %indvars.iv.next90, 8
  br i1 %exitcond92.not, label %57, label %.preheader60, !llvm.loop !112

57:                                               ; preds = %56
  ret void
}